target datalayout = "e-m:e-p270:32:32-p271:32:32-p272:64:64-i64:64-i128:128-f80:128-n8:16:32:64-S128"
target triple = "x86_64-pc-linux-gnu"

%struct.Vec_Int_t_ = type { i32, i32, ptr }
%struct.Abc_Ntk_t_ = type { i32, i32, ptr, ptr, ptr, ptr, ptr, ptr, ptr, ptr, ptr, ptr, ptr, [11 x i32], i32, i32, i32, i32, ptr, i32, ptr, ptr, i32, i32, i32, double, i32, %struct.Vec_Int_t_, ptr, ptr, ptr, ptr, ptr, float, i32, ptr, ptr, ptr, ptr, ptr, ptr, ptr, ptr, ptr, ptr, ptr, ptr, ptr, ptr, ptr, ptr, ptr, ptr, ptr, ptr, ptr }

@.str.67 = private unnamed_addr constant [41 x i8] c"Converting network into AIG has failed.\0A\00", align 1
@.str.68 = private unnamed_addr constant [24 x i8] c"Demitering has failed.\0A\00", align 1
@.str.69 = private unnamed_addr constant [3 x i8] c"%s\00", align 1
@.str.70 = private unnamed_addr constant [10 x i8] c"part0.aig\00", align 1
@.str.71 = private unnamed_addr constant [10 x i8] c"part1.aig\00", align 1
@.str.72 = private unnamed_addr constant [46 x i8] c"Demitering produced two files \22%s\22 and \22%s\22.\0A\00", align 1

; Function Attrs: nounwind uwtable
define i32 @Abc_NtkDarDemiter(ptr noundef %0) #0 {
  %2 = alloca i32, align 4
  %3 = alloca ptr, align 8
  %4 = alloca ptr, align 8
  %5 = alloca [1000 x i8], align 16
  %6 = alloca [1000 x i8], align 16
  %7 = alloca ptr, align 8
  %8 = alloca ptr, align 8
  %9 = alloca ptr, align 8
  store ptr %0, ptr %3, align 8
  %10 = load ptr, ptr %3, align 8
  %11 = call ptr @Abc_NtkToDar(ptr noundef %10, i32 noundef 0, i32 noundef 1)
  store ptr %11, ptr %7, align 8
  %12 = load ptr, ptr %7, align 8
  %13 = icmp eq ptr %12, null
  br i1 %13, label %14, label %15

14:                                               ; preds = %1
  call void (i32, ptr, ...) @Abc_Print(i32 noundef 1, ptr noundef @.str.67)
  store i32 0, ptr %2, align 4
  br label %56

15:                                               ; preds = %1
  %16 = load ptr, ptr %7, align 8
  %17 = call i32 @Saig_ManDemiterSimpleDiff(ptr noundef %16, ptr noundef %8, ptr noundef %9)
  %18 = icmp ne i32 %17, 0
  br i1 %18, label %21, label %19

19:                                               ; preds = %15
  %20 = load ptr, ptr %7, align 8
  call void @Aig_ManStop(ptr noundef %20)
  call void (i32, ptr, ...) @Abc_Print(i32 noundef 1, ptr noundef @.str.68)
  store i32 0, ptr %2, align 4
  br label %56

21:                                               ; preds = %15
  %22 = load ptr, ptr %3, align 8
  %23 = getelementptr inbounds %struct.Abc_Ntk_t_, ptr %22, i32 0, i32 3
  %24 = load ptr, ptr %23, align 8
  %25 = icmp ne ptr %24, null
  br i1 %25, label %26, label %30

26:                                               ; preds = %21
  %27 = load ptr, ptr %3, align 8
  %28 = getelementptr inbounds %struct.Abc_Ntk_t_, ptr %27, i32 0, i32 3
  %29 = load ptr, ptr %28, align 8
  br label %34

30:                                               ; preds = %21
  %31 = load ptr, ptr %3, align 8
  %32 = getelementptr inbounds %struct.Abc_Ntk_t_, ptr %31, i32 0, i32 2
  %33 = load ptr, ptr %32, align 8
  br label %34

34:                                               ; preds = %30, %26
  %35 = phi ptr [ %29, %26 ], [ %33, %30 ]
  %36 = call ptr @Extra_FileNameGeneric(ptr noundef %35)
  store ptr %36, ptr %4, align 8
  %37 = getelementptr inbounds [1000 x i8], ptr %5, i64 0, i64 0
  %38 = call i32 (ptr, ptr, ...) @sprintf(ptr noundef %37, ptr noundef @.str.69, ptr noundef @.str.70) #10
  %39 = getelementptr inbounds [1000 x i8], ptr %6, i64 0, i64 0
  %40 = call i32 (ptr, ptr, ...) @sprintf(ptr noundef %39, ptr noundef @.str.69, ptr noundef @.str.71) #10
  %41 = load ptr, ptr %4, align 8
  %42 = icmp ne ptr %41, null
  br i1 %42, label %43, label %45

43:                                               ; preds = %34
  %44 = load ptr, ptr %4, align 8
  call void @free(ptr noundef %44) #10
  store ptr null, ptr %4, align 8
  br label %46

45:                                               ; preds = %34
  br label %46

46:                                               ; preds = %45, %43
  %47 = load ptr, ptr %8, align 8
  %48 = getelementptr inbounds [1000 x i8], ptr %5, i64 0, i64 0
  call void @Ioa_WriteAiger(ptr noundef %47, ptr noundef %48, i32 noundef 0, i32 noundef 0)
  %49 = load ptr, ptr %9, align 8
  %50 = getelementptr inbounds [1000 x i8], ptr %6, i64 0, i64 0
  call void @Ioa_WriteAiger(ptr noundef %49, ptr noundef %50, i32 noundef 0, i32 noundef 0)
  %51 = getelementptr inbounds [1000 x i8], ptr %5, i64 0, i64 0
  %52 = getelementptr inbounds [1000 x i8], ptr %6, i64 0, i64 0
  call void (i32, ptr, ...) @Abc_Print(i32 noundef 1, ptr noundef @.str.72, ptr noundef %51, ptr noundef %52)
  %53 = load ptr, ptr %8, align 8
  call void @Aig_ManStop(ptr noundef %53)
  %54 = load ptr, ptr %9, align 8
  call void @Aig_ManStop(ptr noundef %54)
  %55 = load ptr, ptr %7, align 8
  call void @Aig_ManStop(ptr noundef %55)
  store i32 1, ptr %2, align 4
  br label %56

56:                                               ; preds = %46, %19, %14
  %57 = load i32, ptr %2, align 4
  ret i32 %57
}