; Function Attrs: nounwind uwtable
define range(i32 0, 2) i32 @Abc_NtkDarDemiter(ptr noundef %0) local_unnamed_addr #1 {
  %2 = alloca [1000 x i8], align 16
  %3 = alloca [1000 x i8], align 16
  %4 = alloca ptr, align 8
  %5 = alloca ptr, align 8
  %6 = tail call ptr @Abc_NtkToDar(ptr noundef %0, i32 noundef 0, i32 noundef 1)
  %7 = icmp eq ptr %6, null
  br i1 %7, label %8, label %9

8:                                                ; preds = %1
  tail call void (i32, ptr, ...) @Abc_Print(i32 poison, ptr noundef nonnull @.str.67)
  br label %27

9:                                                ; preds = %1
  %10 = call i32 @Saig_ManDemiterSimpleDiff(ptr noundef nonnull %6, ptr noundef nonnull %4, ptr noundef nonnull %5) #19
  %.not = icmp eq i32 %10, 0
  br i1 %.not, label %11, label %12

11:                                               ; preds = %9
  call void @Aig_ManStop(ptr noundef nonnull %6) #19
  call void (i32, ptr, ...) @Abc_Print(i32 poison, ptr noundef nonnull @.str.68)
  br label %27

12:                                               ; preds = %9
  %13 = getelementptr inbounds nuw i8, ptr %0, i64 16
  %14 = load ptr, ptr %13, align 8
  %.not13 = icmp eq ptr %14, null
  br i1 %.not13, label %15, label %18

15:                                               ; preds = %12
  %16 = getelementptr inbounds nuw i8, ptr %0, i64 8
  %17 = load ptr, ptr %16, align 8
  br label %18

18:                                               ; preds = %12, %15
  %19 = phi ptr [ %17, %15 ], [ %14, %12 ]
  %20 = call ptr @Extra_FileNameGeneric(ptr noundef %19) #19
  call void @llvm.memcpy.p0.p0.i64(ptr noundef nonnull align 16 dereferenceable(10) %2, ptr noundef nonnull align 1 dereferenceable(10) @.str.70, i64 10, i1 false)
  call void @llvm.memcpy.p0.p0.i64(ptr noundef nonnull align 16 dereferenceable(10) %3, ptr noundef nonnull align 1 dereferenceable(10) @.str.71, i64 10, i1 false)
  %.not14 = icmp eq ptr %20, null
  br i1 %.not14, label %22, label %21

21:                                               ; preds = %18
  call void @free(ptr noundef nonnull %20) #19
  br label %22

22:                                               ; preds = %18, %21
  %23 = load ptr, ptr %4, align 8
  call void @Ioa_WriteAiger(ptr noundef %23, ptr noundef nonnull %2, i32 noundef 0, i32 noundef 0) #19
  %24 = load ptr, ptr %5, align 8
  call void @Ioa_WriteAiger(ptr noundef %24, ptr noundef nonnull %3, i32 noundef 0, i32 noundef 0) #19
  call void (i32, ptr, ...) @Abc_Print(i32 poison, ptr noundef nonnull @.str.72, ptr noundef nonnull %2, ptr noundef nonnull %3)
  %25 = load ptr, ptr %4, align 8
  call void @Aig_ManStop(ptr noundef %25) #19
  %26 = load ptr, ptr %5, align 8
  call void @Aig_ManStop(ptr noundef %26) #19
  call void @Aig_ManStop(ptr noundef nonnull %6) #19
  br label %27

27:                                               ; preds = %22, %11, %8
  %.0 = phi i32 [ 0, %8 ], [ 1, %22 ], [ 0, %11 ]
  ret i32 %.0
}